SAFE root CA
=========================================
MD5 Fingerprint=96:FF:03:04:B9:C9:15:4F:C1:69:0D:2D:A6:A2:52:EF
PEM Data:
-----BEGIN TRUSTED CERTIFICATE-----
MIIERDCCAyygAwIBAgIBADANBgkqhkiG9w0BAQQFADB5MQswCQYDVQQGEwJDQTEP
MA0GA1UECBMGUXVlYmVjMREwDwYDVQQHEwhNb250cmVhbDEjMCEGA1UEAxMaU0FG
RSBDZXJ0aWZpY2F0ZSBBdXRob3JpdHkxITAfBgkqhkiG9w0BCQEWEmNlcnRpZmlj
YXRAc2FmZS5jYTAeFw0wNTAyMDQxODQ2MzdaFw0xNTAyMDIxODQ2MzdaMHkxCzAJ
BgNVBAYTAkNBMQ8wDQYDVQQIEwZRdWViZWMxETAPBgNVBAcTCE1vbnRyZWFsMSMw
IQYDVQQDExpTQUZFIENlcnRpZmljYXRlIEF1dGhvcml0eTEhMB8GCSqGSIb3DQEJ
ARYSY2VydGlmaWNhdEBzYWZlLmNhMIIBIjANBgkqhkiG9w0BAQEFAAOCAQ8AMIIB
CgKCAQEAzMna+MTdeHsbZCUyQbvUglRHIbO1NtpbWgypSoJtBqatrhYTA3E/UB6e
bT6PsyulU0ZFsRoYBv9GWMkO5aoWj5LczlKrBlkaRrlpck3mjnH3CcOM3S/a0Dk5
c2gItV6lv9mxts4DSHp6hgBzR91ScARtmeOMo5iU6jRJFU2if81P7mMyjD2cpbbr
IhBmHB1lZLoqgtKP1b5nAq4vuEVeObl+qL4A6HX3R5uHVvi4cYmPk8H00iriAwbR
ZibPv+TM+oyqAwHZ1OIQRsAkU8Lh6r/0TemjZq7TjUdwqlXNoRtIhhVNjyIqDpz4
QgRPIEU2c0ng0bhHgxW90PFu1xFrvQIDAQABo4HWMIHTMB0GA1UdDgQWBBTLHTkT
IgB7DieuAXiNJ6J0zqzsIzCBowYDVR0jBIGbMIGYgBTLHTkTIgB7DieuAXiNJ6J0
zqzsI6F9pHsweTELMAkGA1UEBhMCQ0ExDzANBgNVBAgTBlF1ZWJlYzERMA8GA1UE
BxMITW9udHJlYWwxIzAhBgNVBAMTGlNBRkUgQ2VydGlmaWNhdGUgQXV0aG9yaXR5
MSEwHwYJKoZIhvcNAQkBFhJjZXJ0aWZpY2F0QHNhZmUuY2GCAQAwDAYDVR0TBAUw
AwEB/zANBgkqhkiG9w0BAQQFAAOCAQEAJK4b5BFS72unIClsbGC97X3hVQjrmKBF
Mwt58n6cD0lclQwgwhojL+GO7tyzvZ7BKiqqoZ5IpGIhu9zL6lBULKeTKh2ny8PH
voOY2lnfGRNnXMKOSwQZPWufHrzF2YduDtLBILlByxMiTadB1yj++hkozY0+REYI
F6pW0uVGSUO5pgaonC0SnNXMJwns6/EBlKpITCmTH/j1MOJRuYVMqJbuMv/imy+k
ZTsOAV0Y8MO/d5Vq4/9GbMfNlcOKZgnHC5bHHt6gq9jUKHyVxDy69qGdaCIyOHOe
qFZr5OStJla5EqMflBmUgd/r7z38NCXESJRCRbIjHb1IY38bIdW6Vg==
-----END TRUSTED CERTIFICATE-----
Certificate:
    Data:
        Version: 3 (0x2)
        Serial Number: 0 (0x0)
        Signature Algorithm: md5WithRSAEncryption
        Issuer: C=CA, ST=Quebec, L=Montreal, CN=SAFE Certificate Authority/emailAddress=certificat@safe.ca
        Validity
            Not Before: Feb  4 18:46:37 2005 GMT
            Not After : Feb  2 18:46:37 2015 GMT
        Subject: C=CA, ST=Quebec, L=Montreal, CN=SAFE Certificate Authority/emailAddress=certificat@safe.ca
        Subject Public Key Info:
            Public Key Algorithm: rsaEncryption
            RSA Public Key: (2048 bit)
                Modulus (2048 bit):
                    00:cc:c9:da:f8:c4:dd:78:7b:1b:64:25:32:41:bb:
                    d4:82:54:47:21:b3:b5:36:da:5b:5a:0c:a9:4a:82:
                    6d:06:a6:ad:ae:16:13:03:71:3f:50:1e:9e:6d:3e:
                    8f:b3:2b:a5:53:46:45:b1:1a:18:06:ff:46:58:c9:
                    0e:e5:aa:16:8f:92:dc:ce:52:ab:06:59:1a:46:b9:
                    69:72:4d:e6:8e:71:f7:09:c3:8c:dd:2f:da:d0:39:
                    39:73:68:08:b5:5e:a5:bf:d9:b1:b6:ce:03:48:7a:
                    7a:86:00:73:47:dd:52:70:04:6d:99:e3:8c:a3:98:
                    94:ea:34:49:15:4d:a2:7f:cd:4f:ee:63:32:8c:3d:
                    9c:a5:b6:eb:22:10:66:1c:1d:65:64:ba:2a:82:d2:
                    8f:d5:be:67:02:ae:2f:b8:45:5e:39:b9:7e:a8:be:
                    00:e8:75:f7:47:9b:87:56:f8:b8:71:89:8f:93:c1:
                    f4:d2:2a:e2:03:06:d1:66:26:cf:bf:e4:cc:fa:8c:
                    aa:03:01:d9:d4:e2:10:46:c0:24:53:c2:e1:ea:bf:
                    f4:4d:e9:a3:66:ae:d3:8d:47:70:aa:55:cd:a1:1b:
                    48:86:15:4d:8f:22:2a:0e:9c:f8:42:04:4f:20:45:
                    36:73:49:e0:d1:b8:47:83:15:bd:d0:f1:6e:d7:11:
                    6b:bd
                Exponent: 65537 (0x10001)
        X509v3 extensions:
            X509v3 Subject Key Identifier: 
            CB:1D:39:13:22:00:7B:0E:27:AE:01:78:8D:27:A2:74:CE:AC:EC:23
            X509v3 Authority Key Identifier: 
            keyid:CB:1D:39:13:22:00:7B:0E:27:AE:01:78:8D:27:A2:74:CE:AC:EC:23
            DirName:/C=CA/ST=Quebec/L=Montreal/CN=SAFE Certificate Authority/emailAddress=certificat@safe.ca
            serial:00

            X509v3 Basic Constraints: 
            CA:TRUE
    Signature Algorithm: md5WithRSAEncryption
        24:ae:1b:e4:11:52:ef:6b:a7:20:29:6c:6c:60:bd:ed:7d:e1:
        55:08:eb:98:a0:45:33:0b:79:f2:7e:9c:0f:49:5c:95:0c:20:
        c2:1a:23:2f:e1:8e:ee:dc:b3:bd:9e:c1:2a:2a:aa:a1:9e:48:
        a4:62:21:bb:dc:cb:ea:50:54:2c:a7:93:2a:1d:a7:cb:c3:c7:
        be:83:98:da:59:df:19:13:67:5c:c2:8e:4b:04:19:3d:6b:9f:
        1e:bc:c5:d9:87:6e:0e:d2:c1:20:b9:41:cb:13:22:4d:a7:41:
        d7:28:fe:fa:19:28:cd:8d:3e:44:46:08:17:aa:56:d2:e5:46:
        49:43:b9:a6:06:a8:9c:2d:12:9c:d5:cc:27:09:ec:eb:f1:01:
        94:aa:48:4c:29:93:1f:f8:f5:30:e2:51:b9:85:4c:a8:96:ee:
        32:ff:e2:9b:2f:a4:65:3b:0e:01:5d:18:f0:c3:bf:77:95:6a:
        e3:ff:46:6c:c7:cd:95:c3:8a:66:09:c7:0b:96:c7:1e:de:a0:
        ab:d8:d4:28:7c:95:c4:3c:ba:f6:a1:9d:68:22:32:38:73:9e:
        a8:56:6b:e4:e4:ad:26:56:b9:12:a3:1f:94:19:94:81:df:eb:
        ef:3d:fc:34:25:c4:48:94:42:45:b2:23:1d:bd:48:63:7f:1b:
        21:d5:ba:56

SAFE Network CA
=========================================
MD5 Fingerprint=02:CF:DE:8C:27:2C:94:93:89:DA:6F:E5:FA:1F:67:5D
PEM Data:
-----BEGIN TRUSTED CERTIFICATE-----
MIIEYzCCA0ugAwIBAgIBATANBgkqhkiG9w0BAQQFADB5MQswCQYDVQQGEwJDQTEP
MA0GA1UECBMGUXVlYmVjMREwDwYDVQQHEwhNb250cmVhbDEjMCEGA1UEAxMaU0FG
RSBDZXJ0aWZpY2F0ZSBBdXRob3JpdHkxITAfBgkqhkiG9w0BCQEWEmNlcnRpZmlj
YXRAc2FmZS5jYTAeFw0wNTAyMDQxODQ2MzhaFw0wNjAyMDQxODQ2MzhaMGwxCzAJ
BgNVBAYTAkNBMQ8wDQYDVQQIEwZRdWViZWMxETAPBgNVBAcTCE1vbnRyZWFsMRkw
FwYDVQQDExBTQUZFIE5ldHdvcmsgTW5nMR4wHAYJKoZIhvcNAQkBFg9zYWZlbmV0
QHNhZmUuY2EwggEiMA0GCSqGSIb3DQEBAQUAA4IBDwAwggEKAoIBAQDAC7T2o2Uv
sDYwLIUxF2Yzom0B6T0Sh/KGeVNjIa0KqCM4KKKw4JW0bkVePtFFcFXTS56XS6f2
2xH4jhnAs5hWEAJ7CliSVH6uPZX8V9JprpsG2OlJNlkPoTa5RoGcy+A6meFH9VjN
QwJXh3YeuRcT1ap8dHLUy0nder1/ZzlgunSBnPo6PDlKezdC62LrzPyl5vdqGlc5
vNI0sdADhU05gVkYpYDOuKbFMV6V5MO5hWFHH/MkB0FdgLzRl0CMxrs6+tmOnr18
ji4hCgLIioAX6E0i+lecBROPsD+FeiirqIywnHZZlUw3nUGuZILm4oiQOiunYHvG
/zgtPwyTutHVAgMBAAGjggEBMIH+MAkGA1UdEwQCMAAwLAYJYIZIAYb4QgENBB8W
HU9wZW5TU0wgR2VuZXJhdGVkIENlcnRpZmljYXRlMB0GA1UdDgQWBBTvrgTSQTX9
aO1Gm4RNaZEW193rfzCBowYDVR0jBIGbMIGYgBTLHTkTIgB7DieuAXiNJ6J0zqzs
I6F9pHsweTELMAkGA1UEBhMCQ0ExDzANBgNVBAgTBlF1ZWJlYzERMA8GA1UEBxMI
TW9udHJlYWwxIzAhBgNVBAMTGlNBRkUgQ2VydGlmaWNhdGUgQXV0aG9yaXR5MSEw
HwYJKoZIhvcNAQkBFhJjZXJ0aWZpY2F0QHNhZmUuY2GCAQAwDQYJKoZIhvcNAQEE
BQADggEBAKJ+pR0tnQbTDbZ+hxr1bEzuyUTjIJYz2vCYxgsYSmY80z7fSRCukxk3
Kcxv+3/6tkV/Yp78na07MbxdYmQRmY5zLLg1dP3MKdIUoZekYZ+ko8xzUMh+WqLc
Hw46XyU8vyNkk/IiLUNze4lYX6ErL+vzouzQhzodqFW9Vx2Sq/fRPmLokXHMe+Fy
faFdJLOiSXq/WgHDvkhi4LhgKE92Ay6RFni828vqrwl0QnQvm7SYIX36/oWap51q
gUPCksKlnYML6rVQcRSzz+nSKd/lBknV4z+X+zqwIYhoiwtvtkRTu8P3ROJCvi4d
NB+/moUJbNc6Tx83cVKq8fFDdZ+HYZ4=
-----END TRUSTED CERTIFICATE-----
Certificate:
    Data:
        Version: 3 (0x2)
        Serial Number: 1 (0x1)
        Signature Algorithm: md5WithRSAEncryption
        Issuer: C=CA, ST=Quebec, L=Montreal, CN=SAFE Certificate Authority/emailAddress=certificat@safe.ca
        Validity
            Not Before: Feb  4 18:46:38 2005 GMT
            Not After : Feb  4 18:46:38 2006 GMT
        Subject: C=CA, ST=Quebec, L=Montreal, CN=SAFE Network Mng/emailAddress=safenet@safe.ca
        Subject Public Key Info:
            Public Key Algorithm: rsaEncryption
            RSA Public Key: (2048 bit)
                Modulus (2048 bit):
                    00:c0:0b:b4:f6:a3:65:2f:b0:36:30:2c:85:31:17:
                    66:33:a2:6d:01:e9:3d:12:87:f2:86:79:53:63:21:
                    ad:0a:a8:23:38:28:a2:b0:e0:95:b4:6e:45:5e:3e:
                    d1:45:70:55:d3:4b:9e:97:4b:a7:f6:db:11:f8:8e:
                    19:c0:b3:98:56:10:02:7b:0a:58:92:54:7e:ae:3d:
                    95:fc:57:d2:69:ae:9b:06:d8:e9:49:36:59:0f:a1:
                    36:b9:46:81:9c:cb:e0:3a:99:e1:47:f5:58:cd:43:
                    02:57:87:76:1e:b9:17:13:d5:aa:7c:74:72:d4:cb:
                    49:dd:7a:bd:7f:67:39:60:ba:74:81:9c:fa:3a:3c:
                    39:4a:7b:37:42:eb:62:eb:cc:fc:a5:e6:f7:6a:1a:
                    57:39:bc:d2:34:b1:d0:03:85:4d:39:81:59:18:a5:
                    80:ce:b8:a6:c5:31:5e:95:e4:c3:b9:85:61:47:1f:
                    f3:24:07:41:5d:80:bc:d1:97:40:8c:c6:bb:3a:fa:
                    d9:8e:9e:bd:7c:8e:2e:21:0a:02:c8:8a:80:17:e8:
                    4d:22:fa:57:9c:05:13:8f:b0:3f:85:7a:28:ab:a8:
                    8c:b0:9c:76:59:95:4c:37:9d:41:ae:64:82:e6:e2:
                    88:90:3a:2b:a7:60:7b:c6:ff:38:2d:3f:0c:93:ba:
                    d1:d5
                Exponent: 65537 (0x10001)
        X509v3 extensions:
            X509v3 Basic Constraints: 
            CA:FALSE
            Netscape Comment: 
            OpenSSL Generated Certificate
            X509v3 Subject Key Identifier: 
            EF:AE:04:D2:41:35:FD:68:ED:46:9B:84:4D:69:91:16:D7:DD:EB:7F
            X509v3 Authority Key Identifier: 
            keyid:CB:1D:39:13:22:00:7B:0E:27:AE:01:78:8D:27:A2:74:CE:AC:EC:23
            DirName:/C=CA/ST=Quebec/L=Montreal/CN=SAFE Certificate Authority/emailAddress=certificat@safe.ca
            serial:00

    Signature Algorithm: md5WithRSAEncryption
        a2:7e:a5:1d:2d:9d:06:d3:0d:b6:7e:87:1a:f5:6c:4c:ee:c9:
        44:e3:20:96:33:da:f0:98:c6:0b:18:4a:66:3c:d3:3e:df:49:
        10:ae:93:19:37:29:cc:6f:fb:7f:fa:b6:45:7f:62:9e:fc:9d:
        ad:3b:31:bc:5d:62:64:11:99:8e:73:2c:b8:35:74:fd:cc:29:
        d2:14:a1:97:a4:61:9f:a4:a3:cc:73:50:c8:7e:5a:a2:dc:1f:
        0e:3a:5f:25:3c:bf:23:64:93:f2:22:2d:43:73:7b:89:58:5f:
        a1:2b:2f:eb:f3:a2:ec:d0:87:3a:1d:a8:55:bd:57:1d:92:ab:
        f7:d1:3e:62:e8:91:71:cc:7b:e1:72:7d:a1:5d:24:b3:a2:49:
        7a:bf:5a:01:c3:be:48:62:e0:b8:60:28:4f:76:03:2e:91:16:
        78:bc:db:cb:ea:af:09:74:42:74:2f:9b:b4:98:21:7d:fa:fe:
        85:9a:a7:9d:6a:81:43:c2:92:c2:a5:9d:83:0b:ea:b5:50:71:
        14:b3:cf:e9:d2:29:df:e5:06:49:d5:e3:3f:97:fb:3a:b0:21:
        88:68:8b:0b:6f:b6:44:53:bb:c3:f7:44:e2:42:be:2e:1d:34:
        1f:bf:9a:85:09:6c:d7:3a:4f:1f:37:71:52:aa:f1:f1:43:75:
        9f:87:61:9e

